Certificate:
    Data:
        Version: 3 (0x2)
        Serial Number: 1 (0x1)
    Signature Algorithm: sha1WithRSAEncryption
        Issuer: DC=org, DC=rjems, O=RJEMS Inc, OU=RJEMS Signing CA, CN=RJEMS Signing CA
        Validity
            Not Before: Dec  9 13:25:17 2018 GMT
            Not After : Dec  8 13:25:17 2020 GMT
        Subject: DC=org, DC=rjems, DC=rjems, O=RJEMS Inc, OU=RJEMS Inc, CN=www.rjems.org
        Subject Public Key Info:
            Public Key Algorithm: rsaEncryption
                Public-Key: (2048 bit)
                Modulus:
                    00:c6:98:7b:20:c6:6a:5f:b3:d9:ff:da:bf:4b:fb:
                    30:20:bd:63:6e:24:a1:86:27:4d:c1:d4:a9:4a:8a:
                    fa:a9:ee:00:42:2a:08:88:7b:5e:91:a9:71:19:35:
                    de:f2:0f:21:e3:77:bd:d8:84:83:c2:d3:ef:6c:8f:
                    4c:7a:08:4d:4a:1b:fa:5b:0f:14:7e:7f:bc:17:a7:
                    50:e0:8c:8f:0f:ec:e6:55:b8:da:cd:bf:3f:66:df:
                    8b:a3:43:f9:3f:e2:c1:5f:65:76:85:76:a8:62:a8:
                    16:4e:77:24:b2:18:54:48:49:13:0c:bd:28:c1:b2:
                    ca:98:3d:28:9f:44:a5:13:21:e2:79:ff:8e:26:33:
                    ed:ca:19:2a:dd:c5:59:9b:7b:2b:b1:6d:9c:78:11:
                    3c:28:fa:d4:23:86:39:77:12:76:95:d1:5f:25:52:
                    61:b2:2d:00:f7:33:6d:38:8a:ac:9a:17:ca:6f:07:
                    db:4e:e2:d6:9d:72:dc:40:e2:d6:37:b2:91:6e:71:
                    ce:46:ee:de:48:cf:35:e7:d8:8a:12:0e:44:ff:62:
                    80:59:b2:8e:8f:05:2f:45:80:2f:e1:b9:01:49:1f:
                    d7:8c:38:23:d4:17:cb:68:b6:8a:5c:14:a3:f6:30:
                    13:3c:d5:a3:96:a1:3e:5e:d1:e7:35:56:62:08:48:
                    6d:fd
                Exponent: 65537 (0x10001)
        X509v3 extensions:
            X509v3 Key Usage: critical
                Digital Signature, Key Encipherment
            X509v3 Basic Constraints: 
                CA:FALSE
            X509v3 Extended Key Usage: 
                TLS Web Server Authentication, TLS Web Client Authentication
            X509v3 Subject Key Identifier: 
                A2:05:1A:F1:B0:20:C2:AF:DD:4E:1A:54:7F:02:21:07:48:A8:5B:9B
            X509v3 Authority Key Identifier: 
                keyid:AB:AE:D2:8E:43:31:9F:59:9E:7D:09:3A:47:3F:43:E7:6D:1A:F9:6E

            X509v3 Subject Alternative Name: 
                DNS:www.rjems.org
    Signature Algorithm: sha1WithRSAEncryption
         95:da:e3:f9:6d:70:db:02:a1:d0:e9:e6:cd:e0:19:ac:98:03:
         fe:b3:03:fb:8a:b0:8d:43:57:c7:75:24:2d:87:e7:b0:10:07:
         5a:02:c5:bd:69:9e:bb:50:0f:e0:25:b8:da:4b:4c:6f:74:b3:
         da:92:bc:62:17:9f:2d:cd:07:d4:9e:0b:0c:75:37:32:f9:cc:
         a4:81:f7:81:32:9a:4e:71:f3:45:f2:7f:4a:b3:2d:1d:39:76:
         f5:5f:9d:7f:48:52:1f:6d:40:50:c5:9c:d4:99:f5:16:7a:97:
         92:2e:ff:0b:77:39:a9:ce:e4:c1:27:e1:e7:a9:f7:56:41:d5:
         8c:c9:0a:82:83:d6:d6:8d:03:6c:f8:45:23:2c:8e:d0:58:7f:
         36:e9:07:c5:59:bb:a2:82:a9:a9:a0:ad:ae:f1:32:5c:cf:ca:
         7f:d2:3a:33:e2:37:6f:4b:f7:08:5f:cd:34:42:a6:01:63:6e:
         88:77:5a:9c:ca:fc:9e:b0:97:0e:9c:3b:f2:42:39:c9:28:3d:
         d4:7d:e6:68:88:60:83:80:b6:e8:57:59:83:f9:51:8e:97:19:
         5e:47:ac:29:43:b1:5d:bb:a0:1e:9d:6f:8d:53:d0:28:be:16:
         47:36:73:97:50:5d:1e:52:8d:3c:6e:61:8d:7c:cd:49:a4:3b:
         3b:bc:ed:fe
-----BEGIN CERTIFICATE-----
MIIEDTCCAvWgAwIBAgIBATANBgkqhkiG9w0BAQUFADB2MRMwEQYKCZImiZPyLGQB
GRYDb3JnMRUwEwYKCZImiZPyLGQBGRYFcmplbXMxEjAQBgNVBAoMCVJKRU1TIElu
YzEZMBcGA1UECwwQUkpFTVMgU2lnbmluZyBDQTEZMBcGA1UEAwwQUkpFTVMgU2ln
bmluZyBDQTAeFw0xODEyMDkxMzI1MTdaFw0yMDEyMDgxMzI1MTdaMIGDMRMwEQYK
CZImiZPyLGQBGRYDb3JnMRUwEwYKCZImiZPyLGQBGRYFcmplbXMxFTATBgoJkiaJ
k/IsZAEZFgVyamVtczESMBAGA1UECgwJUkpFTVMgSW5jMRIwEAYDVQQLDAlSSkVN
UyBJbmMxFjAUBgNVBAMMDXd3dy5yamVtcy5vcmcwggEiMA0GCSqGSIb3DQEBAQUA
A4IBDwAwggEKAoIBAQDGmHsgxmpfs9n/2r9L+zAgvWNuJKGGJ03B1KlKivqp7gBC
KgiIe16RqXEZNd7yDyHjd73YhIPC0+9sj0x6CE1KG/pbDxR+f7wXp1DgjI8P7OZV
uNrNvz9m34ujQ/k/4sFfZXaFdqhiqBZOdySyGFRISRMMvSjBssqYPSifRKUTIeJ5
/44mM+3KGSrdxVmbeyuxbZx4ETwo+tQjhjl3EnaV0V8lUmGyLQD3M204iqyaF8pv
B9tO4tadctxA4tY3spFucc5G7t5IzzXn2IoSDkT/YoBZso6PBS9FgC/huQFJH9eM
OCPUF8totopcFKP2MBM81aOWoT5e0ec1VmIISG39AgMBAAGjgZcwgZQwDgYDVR0P
AQH/BAQDAgWgMAkGA1UdEwQCMAAwHQYDVR0lBBYwFAYIKwYBBQUHAwEGCCsGAQUF
BwMCMB0GA1UdDgQWBBSiBRrxsCDCr91OGlR/AiEHSKhbmzAfBgNVHSMEGDAWgBSr
rtKOQzGfWZ59CTpHP0PnbRr5bjAYBgNVHREEETAPgg13d3cucmplbXMub3JnMA0G
CSqGSIb3DQEBBQUAA4IBAQCV2uP5bXDbAqHQ6ebN4BmsmAP+swP7irCNQ1fHdSQt
h+ewEAdaAsW9aZ67UA/gJbjaS0xvdLPakrxiF58tzQfUngsMdTcy+cykgfeBMppO
cfNF8n9Ksy0dOXb1X51/SFIfbUBQxZzUmfUWepeSLv8LdzmpzuTBJ+HnqfdWQdWM
yQqCg9bWjQNs+EUjLI7QWH826QfFWbuigqmpoK2u8TJcz8p/0joz4jdvS/cIX800
QqYBY26Id1qcyvyesJcOnDvyQjnJKD3UfeZoiGCDgLboV1mD+VGOlxleR6wpQ7Fd
u6AenW+NU9AovhZHNnOXUF0eUo08bmGNfM1JpDs7vO3+
-----END CERTIFICATE-----
